; Function Attrs: mustprogress uwtable
define void @_Z18setCustomFunctionsRN2mu6ParserE(ptr noundef nonnull align 8 dereferenceable(596) %0) local_unnamed_addr #9 personality ptr @__gxx_personality_v0 {
  %2 = alloca %"class.mu::ParserCallback", align 8
  %3 = alloca %"class.mu::ParserCallback", align 8
  %4 = alloca %"class.std::__cxx11::basic_string", align 8
  %5 = alloca %"class.std::allocator.16", align 1
  %6 = alloca %"class.std::__cxx11::basic_string", align 8
  %7 = alloca %"class.std::allocator.16", align 1
  call void @_ZNSaIcEC1Ev(ptr noundef nonnull align 1 dereferenceable(1) %5) #27
  invoke void @_ZNSt7__cxx1112basic_stringIcSt11char_traitsIcESaIcEEC1EPKcRKS3_(ptr noundef nonnull align 8 dereferenceable(32) %4, ptr noundef nonnull @.str.13, ptr noundef nonnull align 1 dereferenceable(1) %5)
          to label %8 unwind label %21

8:                                                ; preds = %1
  call void @llvm.lifetime.start.p0(i64 32, ptr nonnull %3)
  invoke void @_ZN2mu14ParserCallbackC1EPFdvEb(ptr noundef nonnull align 8 dereferenceable(32) %3, ptr noundef nonnull @_Z6ML_Rndv, i1 noundef zeroext true)
          to label %.noexc unwind label %23

.noexc:                                           ; preds = %8
  %9 = invoke noundef ptr @_ZNK2mu10ParserBase14ValidNameCharsEv(ptr noundef nonnull align 8 dereferenceable(596) %0)
          to label %10 unwind label %12

10:                                               ; preds = %.noexc
  %11 = getelementptr inbounds i8, ptr %0, i64 128
  invoke void @_ZN2mu10ParserBase11AddCallbackERKNSt7__cxx1112basic_stringIcSt11char_traitsIcESaIcEEERKNS_14ParserCallbackERSt3mapIS6_S9_St4lessIS6_ESaISt4pairIS7_S9_EEEPKc(ptr noundef nonnull align 8 dereferenceable(596) %0, ptr noundef nonnull align 8 dereferenceable(32) %4, ptr noundef nonnull align 8 dereferenceable(32) %3, ptr noundef nonnull align 8 dereferenceable(48) %11, ptr noundef %9)
          to label %14 unwind label %12

12:                                               ; preds = %10, %.noexc
  %13 = landingpad { ptr, i32 }
          cleanup
  call void @_ZN2mu14ParserCallbackD1Ev(ptr noundef nonnull align 8 dereferenceable(32) %3) #27
  br label %.body

14:                                               ; preds = %10
  call void @_ZN2mu14ParserCallbackD1Ev(ptr noundef nonnull align 8 dereferenceable(32) %3) #27
  call void @llvm.lifetime.end.p0(i64 32, ptr nonnull %3)
  call void @_ZNSt7__cxx1112basic_stringIcSt11char_traitsIcESaIcEED1Ev(ptr noundef nonnull align 8 dereferenceable(32) %4) #27
  call void @_ZNSaIcED1Ev(ptr noundef nonnull align 1 dereferenceable(1) %5) #27
  call void @_ZNSaIcEC1Ev(ptr noundef nonnull align 1 dereferenceable(1) %7) #27
  invoke void @_ZNSt7__cxx1112basic_stringIcSt11char_traitsIcESaIcEEC1EPKcRKS3_(ptr noundef nonnull align 8 dereferenceable(32) %6, ptr noundef nonnull @.str.14, ptr noundef nonnull align 1 dereferenceable(1) %7)
          to label %15 unwind label %25

15:                                               ; preds = %14
  call void @llvm.lifetime.start.p0(i64 32, ptr nonnull %2)
  invoke void @_ZN2mu14ParserCallbackC1EPFddEb(ptr noundef nonnull align 8 dereferenceable(32) %2, ptr noundef nonnull @_Z10ML_RandIntd, i1 noundef zeroext true)
          to label %.noexc10 unwind label %27

.noexc10:                                         ; preds = %15
  %16 = invoke noundef ptr @_ZNK2mu10ParserBase14ValidNameCharsEv(ptr noundef nonnull align 8 dereferenceable(596) %0)
          to label %17 unwind label %18

17:                                               ; preds = %.noexc10
  invoke void @_ZN2mu10ParserBase11AddCallbackERKNSt7__cxx1112basic_stringIcSt11char_traitsIcESaIcEEERKNS_14ParserCallbackERSt3mapIS6_S9_St4lessIS6_ESaISt4pairIS7_S9_EEEPKc(ptr noundef nonnull align 8 dereferenceable(596) %0, ptr noundef nonnull align 8 dereferenceable(32) %6, ptr noundef nonnull align 8 dereferenceable(32) %2, ptr noundef nonnull align 8 dereferenceable(48) %11, ptr noundef %16)
          to label %20 unwind label %18

18:                                               ; preds = %17, %.noexc10
  %19 = landingpad { ptr, i32 }
          cleanup
  call void @_ZN2mu14ParserCallbackD1Ev(ptr noundef nonnull align 8 dereferenceable(32) %2) #27
  br label %.body11

20:                                               ; preds = %17
  call void @_ZN2mu14ParserCallbackD1Ev(ptr noundef nonnull align 8 dereferenceable(32) %2) #27
  call void @llvm.lifetime.end.p0(i64 32, ptr nonnull %2)
  call void @_ZNSt7__cxx1112basic_stringIcSt11char_traitsIcESaIcEED1Ev(ptr noundef nonnull align 8 dereferenceable(32) %6) #27
  call void @_ZNSaIcED1Ev(ptr noundef nonnull align 1 dereferenceable(1) %7) #27
  ret void

21:                                               ; preds = %1
  %22 = landingpad { ptr, i32 }
          cleanup
  br label %29

23:                                               ; preds = %8
  %24 = landingpad { ptr, i32 }
          cleanup
  br label %.body

.body:                                            ; preds = %12, %23
  %eh.lpad-body = phi { ptr, i32 } [ %24, %23 ], [ %13, %12 ]
  call void @_ZNSt7__cxx1112basic_stringIcSt11char_traitsIcESaIcEED1Ev(ptr noundef nonnull align 8 dereferenceable(32) %4) #27
  br label %29

25:                                               ; preds = %14
  %26 = landingpad { ptr, i32 }
          cleanup
  br label %29

27:                                               ; preds = %15
  %28 = landingpad { ptr, i32 }
          cleanup
  br label %.body11

.body11:                                          ; preds = %18, %27
  %eh.lpad-body12 = phi { ptr, i32 } [ %28, %27 ], [ %19, %18 ]
  call void @_ZNSt7__cxx1112basic_stringIcSt11char_traitsIcESaIcEED1Ev(ptr noundef nonnull align 8 dereferenceable(32) %6) #27
  br label %29

29:                                               ; preds = %25, %.body11, %21, %.body
  %.sink = phi ptr [ %5, %.body ], [ %5, %21 ], [ %7, %.body11 ], [ %7, %25 ]
  %.pn7.pn = phi { ptr, i32 } [ %eh.lpad-body, %.body ], [ %22, %21 ], [ %eh.lpad-body12, %.body11 ], [ %26, %25 ]
  call void @_ZNSaIcED1Ev(ptr noundef nonnull align 1 dereferenceable(1) %.sink) #27
  resume { ptr, i32 } %.pn7.pn
}